target datalayout = "e-m:e-p270:32:32-p271:32:32-p272:64:64-i64:64-i128:128-f80:128-n8:16:32:64-S128"
target triple = "x86_64-pc-linux-gnu"

%struct.Py_complex = type { double, double }

; Function Attrs: nounwind uwtable
define internal ptr @parsenumber_raw(ptr noundef %0) #0 {
  %2 = alloca ptr, align 8
  %3 = alloca ptr, align 8
  %4 = alloca ptr, align 8
  %5 = alloca i64, align 8
  %6 = alloca double, align 8
  %7 = alloca %struct.Py_complex, align 8
  %8 = alloca i32, align 4
  %9 = alloca i32, align 4
  store ptr %0, ptr %3, align 8, !tbaa !21
  call void @llvm.lifetime.start.p0(i64 8, ptr %4) #10
  call void @llvm.lifetime.start.p0(i64 8, ptr %5) #10
  call void @llvm.lifetime.start.p0(i64 8, ptr %6) #10
  call void @llvm.lifetime.start.p0(i64 16, ptr %7) #10
  call void @llvm.lifetime.start.p0(i64 4, ptr %8) #10
  %10 = call ptr @__errno_location() #12
  store i32 0, ptr %10, align 4, !tbaa !18
  %11 = load ptr, ptr %3, align 8, !tbaa !21
  %12 = load ptr, ptr %3, align 8, !tbaa !21
  %13 = call i64 @strlen(ptr noundef %12) #11
  %14 = getelementptr i8, ptr %11, i64 %13
  %15 = getelementptr i8, ptr %14, i64 -1
  store ptr %15, ptr %4, align 8, !tbaa !21
  %16 = load ptr, ptr %4, align 8, !tbaa !21
  %17 = load i8, ptr %16, align 1, !tbaa !23
  %18 = sext i8 %17 to i32
  %19 = icmp eq i32 %18, 106
  br i1 %19, label %25, label %20

20:                                               ; preds = %1
  %21 = load ptr, ptr %4, align 8, !tbaa !21
  %22 = load i8, ptr %21, align 1, !tbaa !23
  %23 = sext i8 %22 to i32
  %24 = icmp eq i32 %23, 74
  br label %25

25:                                               ; preds = %20, %1
  %26 = phi i1 [ true, %1 ], [ %24, %20 ]
  %27 = zext i1 %26 to i32
  store i32 %27, ptr %8, align 4, !tbaa !18
  %28 = load ptr, ptr %3, align 8, !tbaa !21
  %29 = getelementptr i8, ptr %28, i64 0
  %30 = load i8, ptr %29, align 1, !tbaa !23
  %31 = sext i8 %30 to i32
  %32 = icmp eq i32 %31, 48
  br i1 %32, label %33, label %46

33:                                               ; preds = %25
  %34 = load ptr, ptr %3, align 8, !tbaa !21
  %35 = call i64 @PyOS_strtoul(ptr noundef %34, ptr noundef %4, i32 noundef 0)
  store i64 %35, ptr %5, align 8, !tbaa !20
  %36 = load i64, ptr %5, align 8, !tbaa !20
  %37 = icmp slt i64 %36, 0
  br i1 %37, label %38, label %45

38:                                               ; preds = %33
  %39 = call ptr @__errno_location() #12
  %40 = load i32, ptr %39, align 4, !tbaa !18
  %41 = icmp eq i32 %40, 0
  br i1 %41, label %42, label %45

42:                                               ; preds = %38
  %43 = load ptr, ptr %3, align 8, !tbaa !21
  %44 = call ptr @PyLong_FromString(ptr noundef %43, ptr noundef null, i32 noundef 0)
  store ptr %44, ptr %2, align 8
  store i32 1, ptr %9, align 4
  br label %97

45:                                               ; preds = %38, %33
  br label %49

46:                                               ; preds = %25
  %47 = load ptr, ptr %3, align 8, !tbaa !21
  %48 = call i64 @PyOS_strtol(ptr noundef %47, ptr noundef %4, i32 noundef 0)
  store i64 %48, ptr %5, align 8, !tbaa !20
  br label %49

49:                                               ; preds = %46, %45
  %50 = load ptr, ptr %4, align 8, !tbaa !21
  %51 = load i8, ptr %50, align 1, !tbaa !23
  %52 = sext i8 %51 to i32
  %53 = icmp eq i32 %52, 0
  br i1 %53, label %54, label %64

54:                                               ; preds = %49
  %55 = call ptr @__errno_location() #12
  %56 = load i32, ptr %55, align 4, !tbaa !18
  %57 = icmp ne i32 %56, 0
  br i1 %57, label %58, label %61

58:                                               ; preds = %54
  %59 = load ptr, ptr %3, align 8, !tbaa !21
  %60 = call ptr @PyLong_FromString(ptr noundef %59, ptr noundef null, i32 noundef 0)
  store ptr %60, ptr %2, align 8
  store i32 1, ptr %9, align 4
  br label %97

61:                                               ; preds = %54
  %62 = load i64, ptr %5, align 8, !tbaa !20
  %63 = call ptr @PyLong_FromLong(i64 noundef %62)
  store ptr %63, ptr %2, align 8
  store i32 1, ptr %9, align 4
  br label %97

64:                                               ; preds = %49
  %65 = load i32, ptr %8, align 4, !tbaa !18
  %66 = icmp ne i32 %65, 0
  br i1 %66, label %67, label %85

67:                                               ; preds = %64
  %68 = getelementptr inbounds nuw %struct.Py_complex, ptr %7, i32 0, i32 0
  store double 0.000000e+00, ptr %68, align 8, !tbaa !147
  %69 = load ptr, ptr %3, align 8, !tbaa !21
  %70 = call double @PyOS_string_to_double(ptr noundef %69, ptr noundef %4, ptr noundef null)
  %71 = getelementptr inbounds nuw %struct.Py_complex, ptr %7, i32 0, i32 1
  store double %70, ptr %71, align 8, !tbaa !150
  %72 = getelementptr inbounds nuw %struct.Py_complex, ptr %7, i32 0, i32 1
  %73 = load double, ptr %72, align 8, !tbaa !150
  %74 = fcmp oeq double %73, -1.000000e+00
  br i1 %74, label %75, label %79

75:                                               ; preds = %67
  %76 = call ptr @PyErr_Occurred()
  %77 = icmp ne ptr %76, null
  br i1 %77, label %78, label %79

78:                                               ; preds = %75
  store ptr null, ptr %2, align 8
  store i32 1, ptr %9, align 4
  br label %97

79:                                               ; preds = %75, %67
  %80 = getelementptr inbounds nuw { double, double }, ptr %7, i32 0, i32 0
  %81 = load double, ptr %80, align 8
  %82 = getelementptr inbounds nuw { double, double }, ptr %7, i32 0, i32 1
  %83 = load double, ptr %82, align 8
  %84 = call ptr @PyComplex_FromCComplex(double %81, double %83)
  store ptr %84, ptr %2, align 8
  store i32 1, ptr %9, align 4
  br label %97

85:                                               ; preds = %64
  %86 = load ptr, ptr %3, align 8, !tbaa !21
  %87 = call double @PyOS_string_to_double(ptr noundef %86, ptr noundef null, ptr noundef null)
  store double %87, ptr %6, align 8, !tbaa !151
  %88 = load double, ptr %6, align 8, !tbaa !151
  %89 = fcmp oeq double %88, -1.000000e+00
  br i1 %89, label %90, label %94

90:                                               ; preds = %85
  %91 = call ptr @PyErr_Occurred()
  %92 = icmp ne ptr %91, null
  br i1 %92, label %93, label %94

93:                                               ; preds = %90
  store ptr null, ptr %2, align 8
  store i32 1, ptr %9, align 4
  br label %97

94:                                               ; preds = %90, %85
  %95 = load double, ptr %6, align 8, !tbaa !151
  %96 = call ptr @PyFloat_FromDouble(double noundef %95)
  store ptr %96, ptr %2, align 8
  store i32 1, ptr %9, align 4
  br label %97

97:                                               ; preds = %94, %93, %79, %78, %61, %58, %42
  call void @llvm.lifetime.end.p0(i64 4, ptr %8) #10
  call void @llvm.lifetime.end.p0(i64 16, ptr %7) #10
  call void @llvm.lifetime.end.p0(i64 8, ptr %6) #10
  call void @llvm.lifetime.end.p0(i64 8, ptr %5) #10
  call void @llvm.lifetime.end.p0(i64 8, ptr %4) #10
  %98 = load ptr, ptr %2, align 8
  ret ptr %98
}