; Function Attrs: nounwind uwtable
define internal fastcc ptr @parsenumber_raw(ptr noundef nonnull %0) unnamed_addr #1 {
  %2 = alloca ptr, align 8
  call void @llvm.lifetime.start.p0(i64 8, ptr nonnull %2) #13
  %3 = tail call ptr @__errno_location() #15
  store i32 0, ptr %3, align 4, !tbaa !17
  %4 = tail call i64 @strlen(ptr noundef nonnull dereferenceable(1) %0) #14
  %5 = getelementptr i8, ptr %0, i64 %4
  %6 = getelementptr i8, ptr %5, i64 -1
  store ptr %6, ptr %2, align 8, !tbaa !109
  %7 = load i8, ptr %6, align 1, !tbaa !18
  %8 = load i8, ptr %0, align 1, !tbaa !18
  %9 = icmp eq i8 %8, 48
  br i1 %9, label %10, label %18

10:                                               ; preds = %1
  %11 = call i64 @PyOS_strtoul(ptr noundef nonnull %0, ptr noundef nonnull %2, i32 noundef 0) #13
  %12 = icmp slt i64 %11, 0
  br i1 %12, label %13, label %20

13:                                               ; preds = %10
  %14 = load i32, ptr %3, align 4, !tbaa !17
  %15 = icmp eq i32 %14, 0
  br i1 %15, label %16, label %20

16:                                               ; preds = %13
  %17 = call ptr @PyLong_FromString(ptr noundef nonnull %0, ptr noundef null, i32 noundef 0) #13
  br label %45

18:                                               ; preds = %1
  %19 = call i64 @PyOS_strtol(ptr noundef nonnull %0, ptr noundef nonnull %2, i32 noundef 0) #13
  br label %20

20:                                               ; preds = %10, %13, %18
  %.015 = phi i64 [ %11, %13 ], [ %11, %10 ], [ %19, %18 ]
  %21 = load ptr, ptr %2, align 8, !tbaa !109
  %22 = load i8, ptr %21, align 1, !tbaa !18
  %23 = icmp eq i8 %22, 0
  br i1 %23, label %24, label %30

24:                                               ; preds = %20
  %25 = load i32, ptr %3, align 4, !tbaa !17
  %.not19 = icmp eq i32 %25, 0
  br i1 %.not19, label %28, label %26

26:                                               ; preds = %24
  %27 = call ptr @PyLong_FromString(ptr noundef nonnull %0, ptr noundef null, i32 noundef 0) #13
  br label %45

28:                                               ; preds = %24
  %29 = call ptr @PyLong_FromLong(i64 noundef %.015) #13
  br label %45

30:                                               ; preds = %20
  switch i8 %7, label %38 [
    i8 106, label %31
    i8 74, label %31
  ]

31:                                               ; preds = %30, %30
  %32 = call double @PyOS_string_to_double(ptr noundef nonnull %0, ptr noundef nonnull %2, ptr noundef null) #13
  %33 = fcmp oeq double %32, -1.000000e+00
  br i1 %33, label %34, label %36

34:                                               ; preds = %31
  %35 = call ptr @PyErr_Occurred() #13
  %.not18 = icmp eq ptr %35, null
  br i1 %.not18, label %36, label %45

36:                                               ; preds = %34, %31
  %37 = call ptr @PyComplex_FromCComplex(double 0.000000e+00, double %32) #13
  br label %45

38:                                               ; preds = %30
  %39 = call double @PyOS_string_to_double(ptr noundef nonnull %0, ptr noundef null, ptr noundef null) #13
  %40 = fcmp oeq double %39, -1.000000e+00
  br i1 %40, label %41, label %43

41:                                               ; preds = %38
  %42 = call ptr @PyErr_Occurred() #13
  %.not = icmp eq ptr %42, null
  br i1 %.not, label %43, label %45

43:                                               ; preds = %41, %38
  %44 = call ptr @PyFloat_FromDouble(double noundef %39) #13
  br label %45

45:                                               ; preds = %41, %34, %43, %36, %28, %26, %16
  %.0 = phi ptr [ %17, %16 ], [ %27, %26 ], [ %29, %28 ], [ %37, %36 ], [ %44, %43 ], [ null, %34 ], [ null, %41 ]
  call void @llvm.lifetime.end.p0(i64 8, ptr nonnull %2) #13
  ret ptr %.0
}